; Function Attrs: nounwind uwtable
define ptr @l_List_forIn_x27_loop___at___private_Lean_Server_Completion_CompletionCollectors_0__Lean_Server_Completion_idCompletionCore___spec__1___lambda__1___boxed(ptr noundef %0, ptr noundef %1, ptr noundef %2, ptr noundef %3, ptr noundef %4, ptr noundef %5, ptr noundef %6, ptr noundef %7, ptr noundef %8, ptr noundef %9, ptr noundef %10, ptr noundef %11, ptr noundef %12, ptr noundef %13) local_unnamed_addr #0 {
  %15 = ptrtoint ptr %2 to i64
  %16 = lshr i64 %15, 1
  %17 = trunc i64 %16 to i8
  %18 = and i64 %15, 1
  %.not = icmp eq i64 %18, 0
  br i1 %.not, label %19, label %lean_dec.exit27

19:                                               ; preds = %14
  %20 = load i32, ptr %2, align 4, !tbaa !8
  %21 = icmp sgt i32 %20, 1
  br i1 %21, label %22, label %24, !prof !11

22:                                               ; preds = %19
  %23 = add nsw i32 %20, -1
  store i32 %23, ptr %2, align 4, !tbaa !8
  br label %lean_dec.exit27

24:                                               ; preds = %19
  %.not.i = icmp eq i32 %20, 0
  br i1 %.not.i, label %lean_dec.exit27, label %25

25:                                               ; preds = %24
  tail call void @lean_dec_ref_cold(ptr noundef nonnull %2) #5
  br label %lean_dec.exit27

lean_dec.exit27:                                  ; preds = %25, %24, %22, %14
  %26 = tail call ptr @l_List_forIn_x27_loop___at___private_Lean_Server_Completion_CompletionCollectors_0__Lean_Server_Completion_idCompletionCore___spec__1___lambda__1(ptr noundef %0, ptr noundef %1, i8 noundef zeroext %17, ptr noundef %3, ptr poison, ptr noundef %5, ptr poison, ptr poison, ptr poison, ptr noundef %9, ptr noundef %10, ptr noundef %11, ptr noundef %12, ptr noundef %13)
  %27 = ptrtoint ptr %8 to i64
  %28 = and i64 %27, 1
  %.not40 = icmp eq i64 %28, 0
  br i1 %.not40, label %29, label %lean_dec.exit26

29:                                               ; preds = %lean_dec.exit27
  %30 = load i32, ptr %8, align 4, !tbaa !8
  %31 = icmp sgt i32 %30, 1
  br i1 %31, label %32, label %34, !prof !11

32:                                               ; preds = %29
  %33 = add nsw i32 %30, -1
  store i32 %33, ptr %8, align 4, !tbaa !8
  br label %lean_dec.exit26

34:                                               ; preds = %29
  %.not.i28 = icmp eq i32 %30, 0
  br i1 %.not.i28, label %lean_dec.exit26, label %35

35:                                               ; preds = %34
  tail call void @lean_dec_ref_cold(ptr noundef nonnull %8) #5
  br label %lean_dec.exit26

lean_dec.exit26:                                  ; preds = %35, %34, %32, %lean_dec.exit27
  %36 = ptrtoint ptr %7 to i64
  %37 = and i64 %36, 1
  %.not41 = icmp eq i64 %37, 0
  br i1 %.not41, label %38, label %lean_dec.exit25

38:                                               ; preds = %lean_dec.exit26
  %39 = load i32, ptr %7, align 4, !tbaa !8
  %40 = icmp sgt i32 %39, 1
  br i1 %40, label %41, label %43, !prof !11

41:                                               ; preds = %38
  %42 = add nsw i32 %39, -1
  store i32 %42, ptr %7, align 4, !tbaa !8
  br label %lean_dec.exit25

43:                                               ; preds = %38
  %.not.i30 = icmp eq i32 %39, 0
  br i1 %.not.i30, label %lean_dec.exit25, label %44

44:                                               ; preds = %43
  tail call void @lean_dec_ref_cold(ptr noundef nonnull %7) #5
  br label %lean_dec.exit25

lean_dec.exit25:                                  ; preds = %44, %43, %41, %lean_dec.exit26
  %45 = ptrtoint ptr %6 to i64
  %46 = and i64 %45, 1
  %.not42 = icmp eq i64 %46, 0
  br i1 %.not42, label %47, label %lean_dec.exit24

47:                                               ; preds = %lean_dec.exit25
  %48 = load i32, ptr %6, align 4, !tbaa !8
  %49 = icmp sgt i32 %48, 1
  br i1 %49, label %50, label %52, !prof !11

50:                                               ; preds = %47
  %51 = add nsw i32 %48, -1
  store i32 %51, ptr %6, align 4, !tbaa !8
  br label %lean_dec.exit24

52:                                               ; preds = %47
  %.not.i32 = icmp eq i32 %48, 0
  br i1 %.not.i32, label %lean_dec.exit24, label %53

53:                                               ; preds = %52
  tail call void @lean_dec_ref_cold(ptr noundef nonnull %6) #5
  br label %lean_dec.exit24

lean_dec.exit24:                                  ; preds = %53, %52, %50, %lean_dec.exit25
  %54 = ptrtoint ptr %4 to i64
  %55 = and i64 %54, 1
  %.not43 = icmp eq i64 %55, 0
  br i1 %.not43, label %56, label %lean_dec.exit23

56:                                               ; preds = %lean_dec.exit24
  %57 = load i32, ptr %4, align 4, !tbaa !8
  %58 = icmp sgt i32 %57, 1
  br i1 %58, label %59, label %61, !prof !11

59:                                               ; preds = %56
  %60 = add nsw i32 %57, -1
  store i32 %60, ptr %4, align 4, !tbaa !8
  br label %lean_dec.exit23

61:                                               ; preds = %56
  %.not.i34 = icmp eq i32 %57, 0
  br i1 %.not.i34, label %lean_dec.exit23, label %62

62:                                               ; preds = %61
  tail call void @lean_dec_ref_cold(ptr noundef nonnull %4) #5
  br label %lean_dec.exit23

lean_dec.exit23:                                  ; preds = %62, %61, %59, %lean_dec.exit24
  %63 = ptrtoint ptr %1 to i64
  %64 = and i64 %63, 1
  %.not44 = icmp eq i64 %64, 0
  br i1 %.not44, label %65, label %lean_dec.exit22

65:                                               ; preds = %lean_dec.exit23
  %66 = load i32, ptr %1, align 4, !tbaa !8
  %67 = icmp sgt i32 %66, 1
  br i1 %67, label %68, label %70, !prof !11

68:                                               ; preds = %65
  %69 = add nsw i32 %66, -1
  store i32 %69, ptr %1, align 4, !tbaa !8
  br label %lean_dec.exit22

70:                                               ; preds = %65
  %.not.i36 = icmp eq i32 %66, 0
  br i1 %.not.i36, label %lean_dec.exit22, label %71

71:                                               ; preds = %70
  tail call void @lean_dec_ref_cold(ptr noundef nonnull %1) #5
  br label %lean_dec.exit22

lean_dec.exit22:                                  ; preds = %71, %70, %68, %lean_dec.exit23
  %72 = ptrtoint ptr %0 to i64
  %73 = and i64 %72, 1
  %.not45 = icmp eq i64 %73, 0
  br i1 %.not45, label %74, label %lean_dec.exit

74:                                               ; preds = %lean_dec.exit22
  %75 = load i32, ptr %0, align 4, !tbaa !8
  %76 = icmp sgt i32 %75, 1
  br i1 %76, label %77, label %79, !prof !11

77:                                               ; preds = %74
  %78 = add nsw i32 %75, -1
  store i32 %78, ptr %0, align 4, !tbaa !8
  br label %lean_dec.exit

79:                                               ; preds = %74
  %.not.i38 = icmp eq i32 %75, 0
  br i1 %.not.i38, label %lean_dec.exit, label %80

80:                                               ; preds = %79
  tail call void @lean_dec_ref_cold(ptr noundef nonnull %0) #5
  br label %lean_dec.exit

lean_dec.exit:                                    ; preds = %80, %79, %77, %lean_dec.exit22
  ret ptr %26
}